; Function Attrs: mustprogress uwtable
define noundef zeroext i1 @_ZNK20TrafficListSortModel16filterAcceptsRowEiRK11QModelIndex(ptr noundef nonnull align 8 dereferenceable(40) %0, i32 noundef %1, ptr noundef nonnull align 8 dereferenceable(24) %2) unnamed_addr #3 align 2 personality ptr @__gxx_personality_v0 {
  %4 = alloca %class.QModelIndex, align 8
  %5 = alloca %class.QModelIndex, align 8
  %6 = alloca %class.QString, align 8
  %7 = alloca %class.QVariant, align 8
  %8 = tail call noundef ptr @_ZNK19QAbstractProxyModel11sourceModelEv(ptr noundef nonnull align 8 dereferenceable(16) %0)
  %.not = icmp eq ptr %8, null
  br i1 %.not, label %_ZNK11QModelIndex7isValidEv.exit.thread, label %9

9:                                                ; preds = %3
  %10 = getelementptr inbounds i8, ptr %0, i64 16
  %11 = getelementptr inbounds i8, ptr %0, i64 32
  %12 = load i64, ptr %11, align 8
  %13 = icmp sgt i64 %12, 0
  br i1 %13, label %14, label %_ZNK11QModelIndex7isValidEv.exit.thread

14:                                               ; preds = %9
  %15 = tail call noundef ptr @_ZNK19QAbstractProxyModel11sourceModelEv(ptr noundef nonnull align 8 dereferenceable(16) %0)
  store i32 -1, ptr %5, align 8
  %16 = getelementptr inbounds i8, ptr %5, i64 4
  store i32 -1, ptr %16, align 4
  %17 = getelementptr inbounds i8, ptr %5, i64 8
  call void @llvm.memset.p0.i64(ptr noundef nonnull align 8 dereferenceable(16) %17, i8 0, i64 16, i1 false)
  %18 = load ptr, ptr %15, align 8
  %19 = getelementptr inbounds i8, ptr %18, i64 96
  %20 = load ptr, ptr %19, align 8
  call void %20(ptr dead_on_unwind nonnull writable sret(%class.QModelIndex) align 8 %4, ptr noundef nonnull align 8 dereferenceable(16) %15, i32 noundef %1, i32 noundef 1, ptr noundef nonnull align 8 dereferenceable(24) %5)
  %21 = load i32, ptr %4, align 8
  %22 = icmp sgt i32 %21, -1
  %23 = getelementptr inbounds i8, ptr %4, i64 4
  %24 = load i32, ptr %23, align 4
  %25 = icmp sgt i32 %24, -1
  %or.cond.i = select i1 %22, i1 %25, i1 false
  %26 = getelementptr inbounds i8, ptr %4, i64 16
  %27 = load ptr, ptr %26, align 8
  %28 = icmp ne ptr %27, null
  %or.cond = select i1 %or.cond.i, i1 %28, i1 false
  br i1 %or.cond, label %_ZNK11QModelIndex4dataEi.exit, label %_ZNK11QModelIndex7isValidEv.exit.thread

_ZNK11QModelIndex4dataEi.exit:                    ; preds = %14
  %29 = load ptr, ptr %27, align 8, !noalias !30
  %30 = getelementptr inbounds i8, ptr %29, i64 144
  %31 = load ptr, ptr %30, align 8, !noalias !30
  call void %31(ptr dead_on_unwind nonnull writable sret(%class.QVariant) align 8 %7, ptr noundef nonnull align 8 dereferenceable(16) %27, ptr noundef nonnull align 8 dereferenceable(24) %4, i32 noundef 0)
  invoke void @_ZNK8QVariant8toStringEv(ptr dead_on_unwind nonnull writable sret(%class.QString) align 8 %6, ptr noundef nonnull align 8 dereferenceable(32) %7)
          to label %32 unwind label %34

32:                                               ; preds = %_ZNK11QModelIndex4dataEi.exit
  call void @_ZN8QVariantD1Ev(ptr noundef nonnull align 8 dereferenceable(32) %7) #19
  %33 = invoke noundef i64 @_ZNK7QString7indexOfERKS_xN2Qt15CaseSensitivityE(ptr noundef nonnull align 8 dereferenceable(24) %6, ptr noundef nonnull align 8 dereferenceable(24) %10, i64 noundef 0, i32 noundef 0)
          to label %42 unwind label %36

34:                                               ; preds = %_ZNK11QModelIndex4dataEi.exit
  %35 = landingpad { ptr, i32 }
          cleanup
  call void @_ZN8QVariantD1Ev(ptr noundef nonnull align 8 dereferenceable(32) %7) #19
  br label %_ZN7QStringD2Ev.exit

36:                                               ; preds = %32
  %37 = landingpad { ptr, i32 }
          cleanup
  %38 = load ptr, ptr %6, align 8
  %.not.i.i.i = icmp eq ptr %38, null
  br i1 %.not.i.i.i, label %_ZN7QStringD2Ev.exit, label %_ZN17QArrayDataPointerIDsE5derefEv.exit.i.i

_ZN17QArrayDataPointerIDsE5derefEv.exit.i.i:      ; preds = %36
  %39 = atomicrmw sub ptr %38, i32 1 seq_cst, align 4
  %.not.i.i = icmp eq i32 %39, 1
  br i1 %.not.i.i, label %40, label %_ZN7QStringD2Ev.exit

40:                                               ; preds = %_ZN17QArrayDataPointerIDsE5derefEv.exit.i.i
  %41 = load ptr, ptr %6, align 8
  call void @_ZN10QArrayData10deallocateEPS_xx(ptr noundef %41, i64 noundef 2, i64 noundef 8) #19
  br label %_ZN7QStringD2Ev.exit

42:                                               ; preds = %32
  %43 = icmp ne i64 %33, -1
  %44 = load ptr, ptr %6, align 8
  %.not.i.i.i9 = icmp eq ptr %44, null
  br i1 %.not.i.i.i9, label %_ZN7QStringD2Ev.exit12, label %_ZN17QArrayDataPointerIDsE5derefEv.exit.i.i10

_ZN17QArrayDataPointerIDsE5derefEv.exit.i.i10:    ; preds = %42
  %45 = atomicrmw sub ptr %44, i32 1 seq_cst, align 4
  %.not.i.i11 = icmp eq i32 %45, 1
  br i1 %.not.i.i11, label %46, label %_ZN7QStringD2Ev.exit12

46:                                               ; preds = %_ZN17QArrayDataPointerIDsE5derefEv.exit.i.i10
  %47 = load ptr, ptr %6, align 8
  call void @_ZN10QArrayData10deallocateEPS_xx(ptr noundef %47, i64 noundef 2, i64 noundef 8) #19
  br label %_ZN7QStringD2Ev.exit12

_ZNK11QModelIndex7isValidEv.exit.thread:          ; preds = %14, %9, %3
  %48 = call noundef zeroext i1 @_ZNK21QSortFilterProxyModel16filterAcceptsRowEiRK11QModelIndex(ptr noundef nonnull align 8 dereferenceable(16) %0, i32 noundef %1, ptr noundef nonnull align 8 dereferenceable(24) %2)
  br label %_ZN7QStringD2Ev.exit12

_ZN7QStringD2Ev.exit12:                           ; preds = %46, %_ZN17QArrayDataPointerIDsE5derefEv.exit.i.i10, %42, %_ZNK11QModelIndex7isValidEv.exit.thread
  %.1 = phi i1 [ %48, %_ZNK11QModelIndex7isValidEv.exit.thread ], [ %43, %42 ], [ %43, %_ZN17QArrayDataPointerIDsE5derefEv.exit.i.i10 ], [ %43, %46 ]
  ret i1 %.1

_ZN7QStringD2Ev.exit:                             ; preds = %40, %_ZN17QArrayDataPointerIDsE5derefEv.exit.i.i, %36, %34
  %.pn = phi { ptr, i32 } [ %35, %34 ], [ %37, %36 ], [ %37, %_ZN17QArrayDataPointerIDsE5derefEv.exit.i.i ], [ %37, %40 ]
  resume { ptr, i32 } %.pn
}